; Function Attrs: mustprogress uwtable
define hidden noundef nonnull ptr @_ZNK3ue222ComponentCondReference5cloneEv(ptr noundef nonnull align 8 dereferenceable(137) %this) unnamed_addr #0 align 2 personality ptr @__gxx_personality_v0 {
entry:
  %call = tail call noalias noundef nonnull dereferenceable(144) ptr @_Znwm(i64 noundef 144) #15
  invoke void @_ZN3ue222ComponentCondReferenceC2ERKS0_(ptr noundef nonnull align 8 dereferenceable(137) %call, ptr noundef nonnull align 8 dereferenceable(137) %this)
          to label %invoke.cont unwind label %lpad

invoke.cont:                                      ; preds = %entry
  ret ptr %call

lpad:                                             ; preds = %entry
  %0 = landingpad { ptr, i32 }
          cleanup
  tail call void @_ZdlPv(ptr noundef nonnull %call) #14
  resume { ptr, i32 } %0
}